target datalayout = "e-m:e-p270:32:32-p271:32:32-p272:64:64-i64:64-i128:128-f80:128-n8:16:32:64-S128"
target triple = "x86_64-pc-linux-gnu"

@_ZZN6cvtest11getTypeNameEiE10type_names = internal global [8 x ptr] [ptr @.str, ptr @.str.21, ptr @.str.22, ptr @.str.23, ptr @.str.24, ptr @.str.25, ptr @.str.26, ptr @.str.27], align 16

; Function Attrs: mustprogress nounwind uwtable
define hidden noundef ptr @_ZN6cvtest11getTypeNameEi(i32 noundef %0) #4 {
  %2 = alloca i32, align 4
  store i32 %0, ptr %2, align 4
  %3 = load i32, ptr %2, align 4
  %4 = and i32 %3, 7
  %5 = sext i32 %4 to i64
  %6 = getelementptr inbounds [8 x ptr], ptr @_ZZN6cvtest11getTypeNameEiE10type_names, i64 0, i64 %5
  %7 = load ptr, ptr %6, align 8
  ret ptr %7
}

; Function Attrs: mustprogress nounwind uwtable
define hidden noundef i32 @_ZN6cvtest10typeByNameEPKc(ptr noundef %0) #4 {
  %2 = alloca i32, align 4
  %3 = alloca ptr, align 8
  %4 = alloca i32, align 4
  store ptr %0, ptr %3, align 8
  store i32 0, ptr %4, align 4
  br label %5

5:                                                ; preds = %17, %1
  %6 = load i32, ptr %4, align 4
  %7 = icmp slt i32 %6, 8
  br i1 %7, label %8, label %20

8:                                                ; preds = %5
  %9 = load ptr, ptr %3, align 8
  %10 = load i32, ptr %4, align 4
  %11 = call noundef ptr @_ZN6cvtest11getTypeNameEi(i32 noundef %10)
  %12 = call i32 @strcmp(ptr noundef %9, ptr noundef %11) #17
  %13 = icmp eq i32 %12, 0
  br i1 %13, label %14, label %16

14:                                               ; preds = %8
  %15 = load i32, ptr %4, align 4
  store i32 %15, ptr %2, align 4
  br label %21

16:                                               ; preds = %8
  br label %17

17:                                               ; preds = %16
  %18 = load i32, ptr %4, align 4
  %19 = add nsw i32 %18, 1
  store i32 %19, ptr %4, align 4
  br label %5, !llvm.loop !4

20:                                               ; preds = %5
  store i32 -1, ptr %2, align 4
  br label %21

21:                                               ; preds = %20, %14
  %22 = load i32, ptr %2, align 4
  ret i32 %22
}