; Function Attrs: mustprogress nofree nounwind willreturn memory(read, inaccessiblemem: none) uwtable
define hidden noundef i32 @_ZN6cvtest10typeByNameEPKc(ptr nocapture noundef readonly %0) local_unnamed_addr #4 {
  br label %2

2:                                                ; preds = %1, %7
  %indvars.iv = phi i64 [ 0, %1 ], [ %indvars.iv.next, %7 ]
  %3 = getelementptr inbounds [8 x ptr], ptr @_ZZN6cvtest11getTypeNameEiE10type_names, i64 0, i64 %indvars.iv
  %4 = load ptr, ptr %3, align 8
  %5 = tail call i32 @strcmp(ptr noundef nonnull dereferenceable(1) %0, ptr noundef nonnull dereferenceable(1) %4) #27
  %6 = icmp eq i32 %5, 0
  br i1 %6, label %.split.loop.exit8, label %7

7:                                                ; preds = %2
  %indvars.iv.next = add nuw nsw i64 %indvars.iv, 1
  %exitcond.not = icmp eq i64 %indvars.iv.next, 8
  br i1 %exitcond.not, label %.split.loop.exit, label %2, !llvm.loop !4

.split.loop.exit8:                                ; preds = %2
  %8 = trunc nuw nsw i64 %indvars.iv to i32
  br label %.split.loop.exit

.split.loop.exit:                                 ; preds = %7, %.split.loop.exit8
  %.05 = phi i32 [ %8, %.split.loop.exit8 ], [ -1, %7 ]
  ret i32 %.05
}